target datalayout = "e-m:e-p270:32:32-p271:32:32-p272:64:64-i64:64-i128:128-f80:128-n8:16:32:64-S128"
target triple = "x86_64-pc-linux-gnu"

%struct.AVFilterContext = type { ptr, ptr, ptr, ptr, ptr, i32, ptr, ptr, i32, ptr, ptr, i32, i32, ptr, ptr, ptr, ptr, i32, ptr, i32, i32 }
%struct.XMedianContext = type { ptr, ptr, i32, i32, i32, i32, float, i32, i32, i32, i32, i32, i32, [4 x i32], [4 x i32], [4 x i32], ptr, ptr, ptr, %struct.FFFrameSync, ptr }
%struct.FFFrameSync = type { ptr, ptr, i32, %struct.AVRational, i64, ptr, ptr, i32, i32, i8, i8, ptr, i32, i32, i32, i32 }
%struct.AVRational = type { i32, i32 }

; Function Attrs: alwaysinline nounwind willreturn memory(none) uwtable
define internal i32 @av_clip_c(i32 noundef %0, i32 noundef %1, i32 noundef %2) #9 {
  %4 = alloca i32, align 4
  %5 = alloca i32, align 4
  %6 = alloca i32, align 4
  %7 = alloca i32, align 4
  store i32 %0, ptr %5, align 4, !tbaa !37
  store i32 %1, ptr %6, align 4, !tbaa !37
  store i32 %2, ptr %7, align 4, !tbaa !37
  %8 = load i32, ptr %5, align 4, !tbaa !37
  %9 = load i32, ptr %6, align 4, !tbaa !37
  %10 = icmp slt i32 %8, %9
  br i1 %10, label %11, label %13

11:                                               ; preds = %3
  %12 = load i32, ptr %6, align 4, !tbaa !37
  store i32 %12, ptr %4, align 4
  br label %21

13:                                               ; preds = %3
  %14 = load i32, ptr %5, align 4, !tbaa !37
  %15 = load i32, ptr %7, align 4, !tbaa !37
  %16 = icmp sgt i32 %14, %15
  br i1 %16, label %17, label %19

17:                                               ; preds = %13
  %18 = load i32, ptr %7, align 4, !tbaa !37
  store i32 %18, ptr %4, align 4
  br label %21

19:                                               ; preds = %13
  %20 = load i32, ptr %5, align 4, !tbaa !37
  store i32 %20, ptr %4, align 4
  br label %21

21:                                               ; preds = %19, %17, %11
  %22 = load i32, ptr %4, align 4
  ret i32 %22
}

; Function Attrs: cold nounwind optsize uwtable
define internal i32 @init(ptr noundef %0) #1 {
  %2 = alloca i32, align 4
  %3 = alloca ptr, align 8
  %4 = alloca ptr, align 8
  %5 = alloca i32, align 4
  store ptr %0, ptr %3, align 8, !tbaa !4
  call void @llvm.lifetime.start.p0(i64 8, ptr %4) #11
  %6 = load ptr, ptr %3, align 8, !tbaa !4
  %7 = getelementptr inbounds nuw %struct.AVFilterContext, ptr %6, i32 0, i32 9
  %8 = load ptr, ptr %7, align 8, !tbaa !9
  store ptr %8, ptr %4, align 8, !tbaa !22
  %9 = load ptr, ptr %4, align 8, !tbaa !22
  %10 = getelementptr inbounds nuw %struct.XMedianContext, ptr %9, i32 0, i32 7
  %11 = load i32, ptr %10, align 4, !tbaa !24
  %12 = icmp ne i32 %11, 0
  br i1 %12, label %21, label %13

13:                                               ; preds = %1
  %14 = load ptr, ptr %4, align 8, !tbaa !22
  %15 = getelementptr inbounds nuw %struct.XMedianContext, ptr %14, i32 0, i32 8
  %16 = load i32, ptr %15, align 8, !tbaa !36
  %17 = mul nsw i32 %16, 2
  %18 = add nsw i32 %17, 1
  %19 = load ptr, ptr %4, align 8, !tbaa !22
  %20 = getelementptr inbounds nuw %struct.XMedianContext, ptr %19, i32 0, i32 2
  store i32 %18, ptr %20, align 8, !tbaa !35
  br label %21

21:                                               ; preds = %13, %1
  %22 = load ptr, ptr %4, align 8, !tbaa !22
  %23 = getelementptr inbounds nuw %struct.XMedianContext, ptr %22, i32 0, i32 2
  %24 = load i32, ptr %23, align 8, !tbaa !35
  %25 = and i32 %24, 1
  %26 = icmp ne i32 %25, 0
  br i1 %26, label %27, label %40

27:                                               ; preds = %21
  %28 = load ptr, ptr %4, align 8, !tbaa !22
  %29 = getelementptr inbounds nuw %struct.XMedianContext, ptr %28, i32 0, i32 8
  %30 = load i32, ptr %29, align 8, !tbaa !36
  %31 = sitofp i32 %30 to float
  %32 = fmul nsz float %31, 2.000000e+00
  %33 = load ptr, ptr %4, align 8, !tbaa !22
  %34 = getelementptr inbounds nuw %struct.XMedianContext, ptr %33, i32 0, i32 6
  %35 = load float, ptr %34, align 8, !tbaa !46
  %36 = fmul nsz float %32, %35
  %37 = fptosi float %36 to i32
  %38 = load ptr, ptr %4, align 8, !tbaa !22
  %39 = getelementptr inbounds nuw %struct.XMedianContext, ptr %38, i32 0, i32 9
  store i32 %37, ptr %39, align 4, !tbaa !47
  br label %58

40:                                               ; preds = %21
  %41 = load ptr, ptr %4, align 8, !tbaa !22
  %42 = getelementptr inbounds nuw %struct.XMedianContext, ptr %41, i32 0, i32 8
  %43 = load i32, ptr %42, align 8, !tbaa !36
  %44 = sitofp i32 %43 to float
  %45 = fmul nsz float %44, 2.000000e+00
  %46 = load ptr, ptr %4, align 8, !tbaa !22
  %47 = getelementptr inbounds nuw %struct.XMedianContext, ptr %46, i32 0, i32 6
  %48 = load float, ptr %47, align 8, !tbaa !46
  %49 = fmul nsz float %45, %48
  %50 = fptosi float %49 to i32
  %51 = load ptr, ptr %4, align 8, !tbaa !22
  %52 = getelementptr inbounds nuw %struct.XMedianContext, ptr %51, i32 0, i32 2
  %53 = load i32, ptr %52, align 8, !tbaa !35
  %54 = sub nsw i32 %53, 1
  %55 = call i32 @av_clip_c(i32 noundef %50, i32 noundef 1, i32 noundef %54) #13
  %56 = load ptr, ptr %4, align 8, !tbaa !22
  %57 = getelementptr inbounds nuw %struct.XMedianContext, ptr %56, i32 0, i32 9
  store i32 %55, ptr %57, align 4, !tbaa !47
  br label %58

58:                                               ; preds = %40, %27
  %59 = load ptr, ptr %4, align 8, !tbaa !22
  %60 = getelementptr inbounds nuw %struct.XMedianContext, ptr %59, i32 0, i32 2
  %61 = load i32, ptr %60, align 8, !tbaa !35
  %62 = sext i32 %61 to i64
  %63 = call noalias ptr @av_calloc(i64 noundef %62, i64 noundef 8)
  %64 = load ptr, ptr %4, align 8, !tbaa !22
  %65 = getelementptr inbounds nuw %struct.XMedianContext, ptr %64, i32 0, i32 18
  store ptr %63, ptr %65, align 8, !tbaa !44
  %66 = load ptr, ptr %4, align 8, !tbaa !22
  %67 = getelementptr inbounds nuw %struct.XMedianContext, ptr %66, i32 0, i32 18
  %68 = load ptr, ptr %67, align 8, !tbaa !44
  %69 = icmp ne ptr %68, null
  br i1 %69, label %71, label %70

70:                                               ; preds = %58
  store i32 -12, ptr %2, align 4
  store i32 1, ptr %5, align 4
  br label %72

71:                                               ; preds = %58
  store i32 0, ptr %2, align 4
  store i32 1, ptr %5, align 4
  br label %72

72:                                               ; preds = %71, %70
  call void @llvm.lifetime.end.p0(i64 8, ptr %4) #11
  %73 = load i32, ptr %2, align 4
  ret i32 %73
}