; Function Attrs: cold nounwind optsize uwtable
define internal range(i32 -12, 1) i32 @init(ptr noundef readonly captures(none) %0) #1 {
  %2 = getelementptr inbounds nuw i8, ptr %0, i64 72
  %3 = load ptr, ptr %2, align 8, !tbaa !4
  %4 = getelementptr inbounds nuw i8, ptr %3, i64 36
  %5 = load i32, ptr %4, align 4, !tbaa !20
  %.not = icmp eq i32 %5, 0
  br i1 %.not, label %6, label %._crit_edge

._crit_edge:                                      ; preds = %1
  %.phi.trans.insert = getelementptr inbounds nuw i8, ptr %3, i64 16
  %.pre = load i32, ptr %.phi.trans.insert, align 8, !tbaa !32
  br label %12

6:                                                ; preds = %1
  %7 = getelementptr inbounds nuw i8, ptr %3, i64 40
  %8 = load i32, ptr %7, align 8, !tbaa !33
  %9 = shl nsw i32 %8, 1
  %10 = or disjoint i32 %9, 1
  %11 = getelementptr inbounds nuw i8, ptr %3, i64 16
  store i32 %10, ptr %11, align 8, !tbaa !32
  br label %12

12:                                               ; preds = %._crit_edge, %6
  %13 = phi i32 [ %.pre, %._crit_edge ], [ %10, %6 ]
  %14 = and i32 %13, 1
  %.not15 = icmp eq i32 %14, 0
  %15 = getelementptr inbounds nuw i8, ptr %3, i64 40
  %16 = load i32, ptr %15, align 8, !tbaa !33
  %17 = sitofp i32 %16 to float
  %18 = fmul nsz float %17, 2.000000e+00
  %19 = getelementptr inbounds nuw i8, ptr %3, i64 32
  %20 = load float, ptr %19, align 8, !tbaa !41
  %21 = fmul nsz float %20, %18
  %22 = fptosi float %21 to i32
  br i1 %.not15, label %23, label %26

23:                                               ; preds = %12
  %24 = add nsw i32 %13, -1
  %25 = icmp slt i32 %22, 1
  %..i = tail call i32 @llvm.smin.i32(i32 %24, i32 %22)
  %.0.i = select i1 %25, i32 1, i32 %..i
  br label %26

26:                                               ; preds = %12, %23
  %.sink = phi i32 [ %.0.i, %23 ], [ %22, %12 ]
  %27 = getelementptr inbounds nuw i8, ptr %3, i64 44
  store i32 %.sink, ptr %27, align 4, !tbaa !42
  %28 = sext i32 %13 to i64
  %29 = tail call noalias ptr @av_calloc(i64 noundef %28, i64 noundef 8) #10
  %30 = getelementptr inbounds nuw i8, ptr %3, i64 128
  store ptr %29, ptr %30, align 8, !tbaa !39
  %.not16 = icmp eq ptr %29, null
  %. = select i1 %.not16, i32 -12, i32 0
  ret i32 %.
}